; Function Attrs: nounwind sspstrong uwtable
define internal void @sifive_pwm_init(ptr noundef %obj) #0 {
entry:
  %call = tail call ptr @object_dynamic_cast_assert(ptr noundef %obj, ptr noundef nonnull @.str, ptr noundef nonnull @.str.2, i32 noundef 416, ptr noundef nonnull @__func__.sifive_pwm_init) #6
  %irqs = getelementptr inbounds nuw i8, ptr %call, i64 1320
  br label %for.body

for.body:                                         ; preds = %entry, %for.body
  %indvars.iv = phi i64 [ 0, %entry ], [ %indvars.iv.next, %for.body ]
  %call.i = tail call ptr @object_dynamic_cast_assert(ptr noundef %obj, ptr noundef nonnull @.str.1, ptr noundef nonnull @.str.3, i32 noundef 20, ptr noundef nonnull @__func__.SYS_BUS_DEVICE) #6
  %arrayidx = getelementptr [4 x ptr], ptr %irqs, i64 0, i64 %indvars.iv
  tail call void @sysbus_init_irq(ptr noundef %call.i, ptr noundef %arrayidx) #6
  %indvars.iv.next = add nuw nsw i64 %indvars.iv, 1
  %exitcond.not = icmp eq i64 %indvars.iv.next, 4
  br i1 %exitcond.not, label %for.end, label %for.body, !llvm.loop !5

for.end:                                          ; preds = %for.body
  %mmio = getelementptr inbounds nuw i8, ptr %call, i64 816
  tail call void @memory_region_init_io(ptr noundef nonnull %mmio, ptr noundef %obj, ptr noundef nonnull @sifive_pwm_ops, ptr noundef %call, ptr noundef nonnull @.str, i64 noundef 256) #6
  %call.i9 = tail call ptr @object_dynamic_cast_assert(ptr noundef %obj, ptr noundef nonnull @.str.1, ptr noundef nonnull @.str.3, i32 noundef 20, ptr noundef nonnull @__func__.SYS_BUS_DEVICE) #6
  tail call void @sysbus_init_mmio(ptr noundef %call.i9, ptr noundef nonnull %mmio) #6
  ret void
}